Certificate:
    Data:
        Version: 3 (0x2)
        Serial Number: 20 (0x14)
        Signature Algorithm: sha1WithRSAEncryption
        Issuer: DC=com, DC=zepben, O=Zeppelin Bend Pty Ltd, OU=Zeppelin Bend Signing CA, CN=Zepben Signing CA
        Validity
            Not Before: Aug 20 05:15:40 2021 GMT
            Not After : Aug 20 05:15:40 2026 GMT
        Subject: C=AU, ST=ACT, L=Canberra, O=Zeppelin Bend Pty Ltd, OU=evolve, CN=ewb.local
        Subject Public Key Info:
            Public Key Algorithm: rsaEncryption
                RSA Public-Key: (2048 bit)
                Modulus:
                    00:b5:d7:4b:ce:5c:4d:ab:46:99:d1:5c:f4:0e:e7:
                    89:de:1a:16:bc:83:ea:15:2f:a3:17:0f:fa:b1:c5:
                    73:9b:ec:55:ef:11:19:11:63:f9:05:3a:32:06:80:
                    04:4b:81:69:d3:f4:e0:aa:ba:66:17:12:1f:d5:1d:
                    e6:f2:5e:6a:35:38:29:27:54:02:09:53:9c:f9:de:
                    2d:9a:a3:88:d2:ca:c6:e6:d5:d3:40:f6:c4:3f:47:
                    f6:66:15:58:08:f6:76:9f:9e:e4:7e:75:41:22:80:
                    91:06:fa:6d:9a:cc:b5:5f:5e:fe:bd:5a:43:98:cc:
                    00:82:fd:78:cd:a2:c9:c0:38:47:11:2b:4b:96:23:
                    4b:fb:10:cf:86:91:67:f7:00:b0:17:aa:73:fe:09:
                    cc:ac:e2:d1:22:fd:bf:52:34:f5:cf:9a:37:42:87:
                    db:fc:64:73:e7:f8:fd:db:67:be:86:02:9b:3d:07:
                    da:6a:0c:b7:86:72:0d:93:b2:0f:cd:71:fc:a7:de:
                    95:cb:e8:85:25:81:a2:2d:28:c2:2f:35:87:72:7a:
                    33:56:c2:a5:89:59:d4:8f:d5:07:64:9d:8f:e8:a9:
                    b3:77:44:a4:c4:84:6c:97:f6:2e:96:68:97:c2:a8:
                    17:3d:48:a5:5e:f4:94:9b:c4:69:19:7a:4f:7a:7c:
                    ed:15
                Exponent: 65537 (0x10001)
        X509v3 extensions:
            X509v3 Key Usage: critical
                Digital Signature, Key Encipherment
            X509v3 Basic Constraints: critical
                CA:FALSE
            X509v3 Extended Key Usage: 
                TLS Web Server Authentication, TLS Web Client Authentication
            X509v3 Subject Key Identifier: 
                00:39:E4:11:FE:B7:0A:0E:A7:F4:98:A4:41:6A:01:CC:28:CD:6F:BA
            X509v3 Authority Key Identifier: 
                keyid:44:5E:99:3D:8B:C7:3F:17:D9:11:2F:47:D1:9E:6A:58:E0:2E:CE:1B

            X509v3 Subject Alternative Name: 
                DNS:ewb.local, DNS:evolve.local
    Signature Algorithm: sha1WithRSAEncryption
         da:08:65:1a:b1:c4:6c:a2:57:8c:ab:1a:d0:9a:ba:72:36:0a:
         15:e6:d3:61:bd:0f:7c:42:b6:8c:a6:b9:26:de:15:df:0c:aa:
         4e:9d:25:8f:e1:26:05:aa:4d:cf:0b:6c:a0:01:25:27:93:9d:
         4b:21:23:d2:6f:8f:9f:d4:e8:e5:ce:eb:b0:70:34:e2:0c:2e:
         29:46:af:81:59:39:88:c1:da:20:95:77:27:3f:13:be:5a:76:
         dd:5a:02:17:12:0b:5e:88:cc:99:ec:ef:0b:92:86:a4:6d:5b:
         98:46:aa:33:cc:2d:2a:a2:b9:6c:7c:58:f9:42:62:18:e9:e5:
         c4:c1:f8:5c:ac:65:0c:28:6f:f2:b4:6c:a0:0d:7f:d4:b6:43:
         10:01:df:de:f7:c7:a1:ee:ae:a8:ab:0e:ee:9d:88:3d:12:dc:
         f2:5a:ba:ab:0b:9d:6c:88:64:72:dc:fa:e3:bb:19:b3:0f:d6:
         1f:92:c6:0e:22:a2:4d:88:fc:39:6f:40:89:2b:84:fa:85:d6:
         18:b0:59:36:aa:21:a0:30:cf:f0:4a:0d:da:ed:ab:cb:96:fc:
         24:21:09:07:a5:21:98:76:cf:10:d0:c6:e8:52:9b:89:e4:31:
         1e:66:17:1c:10:3b:e2:3e:e9:32:44:58:4e:6e:04:a3:c1:1e:
         2e:51:12:99:29:02:38:0a:40:c4:e9:23:e3:31:6f:e0:e9:bb:
         1e:f4:3b:60:4e:8c:d0:1b:b0:f3:92:8a:1b:ac:ad:f7:e1:36:
         f3:94:ee:88:a3:24:f7:76:e5:5a:ce:4d:59:a7:b3:27:a7:20:
         15:88:9e:0f:b1:55:c6:46:53:59:e9:ca:8e:24:b2:17:66:04:
         c7:3b:31:f3:b7:d9:0a:64:bb:32:b9:27:34:ed:7a:cd:0b:66:
         b9:9f:89:e9:c6:01:a6:dc:54:56:67:f8:7c:82:2d:60:91:05:
         ce:c6:c8:c8:1f:ba:82:68:fe:9f:ae:c1:bd:f2:a0:a7:aa:14:
         de:e2:32:1c:42:32:ce:6e:48:e3:ab:42:69:04:a0:d6:4b:3f:
         6b:cd:5c:0e:7b:8c:fd:73:d6:cf:11:a3:af:73:e2:b5:5b:03:
         b5:db:92:12:00:32:2c:8d:3b:4b:4b:fa:e7:f4:d3:3d:56:7b:
         e9:10:7a:bc:0b:c8:7c:9b:85:60:7b:95:ed:d7:7e:e3:d4:81:
         1e:05:4a:a9:70:22:59:32:9e:e3:80:91:10:81:87:8b:6b:0c:
         9a:c7:e4:fe:de:d4:88:0e:e2:c4:54:b1:e9:18:b7:5b:fa:e6:
         c1:14:2c:c4:f5:e2:31:39:d2:1f:c7:fe:81:5f:0e:7f:e6:1b:
         c6:b0:94:d4:4a:5b:93:25
-----BEGIN CERTIFICATE-----
MIIFIDCCAwigAwIBAgIBFDANBgkqhkiG9w0BAQUFADCBjDETMBEGCgmSJomT8ixk
ARkWA2NvbTEWMBQGCgmSJomT8ixkARkWBnplcGJlbjEeMBwGA1UECgwVWmVwcGVs
aW4gQmVuZCBQdHkgTHRkMSEwHwYDVQQLDBhaZXBwZWxpbiBCZW5kIFNpZ25pbmcg
Q0ExGjAYBgNVBAMMEVplcGJlbiBTaWduaW5nIENBMB4XDTIxMDgyMDA1MTU0MFoX
DTI2MDgyMDA1MTU0MFowczELMAkGA1UEBhMCQVUxDDAKBgNVBAgMA0FDVDERMA8G
A1UEBwwIQ2FuYmVycmExHjAcBgNVBAoMFVplcHBlbGluIEJlbmQgUHR5IEx0ZDEP
MA0GA1UECwwGZXZvbHZlMRIwEAYDVQQDDAlld2IubG9jYWwwggEiMA0GCSqGSIb3
DQEBAQUAA4IBDwAwggEKAoIBAQC110vOXE2rRpnRXPQO54neGha8g+oVL6MXD/qx
xXOb7FXvERkRY/kFOjIGgARLgWnT9OCqumYXEh/VHebyXmo1OCknVAIJU5z53i2a
o4jSysbm1dNA9sQ/R/ZmFVgI9nafnuR+dUEigJEG+m2azLVfXv69WkOYzACC/XjN
osnAOEcRK0uWI0v7EM+GkWf3ALAXqnP+Ccys4tEi/b9SNPXPmjdCh9v8ZHPn+P3b
Z76GAps9B9pqDLeGcg2Tsg/Ncfyn3pXL6IUlgaItKMIvNYdyejNWwqWJWdSP1Qdk
nY/oqbN3RKTEhGyX9i6WaJfCqBc9SKVe9JSbxGkZek96fO0VAgMBAAGjgaQwgaEw
DgYDVR0PAQH/BAQDAgWgMAwGA1UdEwEB/wQCMAAwHQYDVR0lBBYwFAYIKwYBBQUH
AwEGCCsGAQUFBwMCMB0GA1UdDgQWBBQAOeQR/rcKDqf0mKRBagHMKM1vujAfBgNV
HSMEGDAWgBREXpk9i8c/F9kRL0fRnmpY4C7OGzAiBgNVHREEGzAZgglld2IubG9j
YWyCDGV2b2x2ZS5sb2NhbDANBgkqhkiG9w0BAQUFAAOCAgEA2ghlGrHEbKJXjKsa
0Jq6cjYKFebTYb0PfEK2jKa5Jt4V3wyqTp0lj+EmBapNzwtsoAElJ5OdSyEj0m+P
n9To5c7rsHA04gwuKUavgVk5iMHaIJV3Jz8Tvlp23VoCFxILXojMmezvC5KGpG1b
mEaqM8wtKqK5bHxY+UJiGOnlxMH4XKxlDChv8rRsoA1/1LZDEAHf3vfHoe6uqKsO
7p2IPRLc8lq6qwudbIhkctz647sZsw/WH5LGDiKiTYj8OW9AiSuE+oXWGLBZNqoh
oDDP8EoN2u2ry5b8JCEJB6UhmHbPENDG6FKbieQxHmYXHBA74j7pMkRYTm4Eo8Ee
LlESmSkCOApAxOkj4zFv4Om7HvQ7YE6M0Buw85KKG6yt9+E285TuiKMk93blWs5N
WaezJ6cgFYieD7FVxkZTWenKjiSyF2YExzsx87fZCmS7MrknNO16zQtmuZ+J6cYB
ptxUVmf4fIItYJEFzsbIyB+6gmj+n67BvfKgp6oU3uIyHEIyzm5I46tCaQSg1ks/
a81cDnuM/XPWzxGjr3PitVsDtduSEgAyLI07S0v65/TTPVZ76RB6vAvIfJuFYHuV
7dd+49SBHgVKqXAiWTKe44CREIGHi2sMmsfk/t7UiA7ixFSx6Ri3W/rmwRQsxPXi
MTnSH8f+gV8Of+YbxrCU1EpbkyU=
-----END CERTIFICATE-----
